; Function Attrs: mustprogress uwtable
define hidden noundef i32 @_ZN10duckdb_re26Regexp11NumCapturesEv(ptr noundef nonnull align 8 dereferenceable(40) %0) local_unnamed_addr #7 align 2 personality ptr @__gxx_personality_v0 {
  %2 = alloca %"class.duckdb_re2::NumCapturesWalker", align 8
  call void @llvm.lifetime.start.p0(i64 104, ptr nonnull %2) #27
  store ptr getelementptr inbounds nuw inrange(-16, 48) (i8, ptr @_ZTVN10duckdb_re26Regexp6WalkerIiEE, i64 16), ptr %2, align 8, !tbaa !28
  %3 = getelementptr inbounds nuw i8, ptr %2, i64 8
  call void @llvm.memset.p0.i64(ptr noundef nonnull align 8 dereferenceable(80) %3, i8 0, i64 80, i1 false)
  call void @_ZNSt11_Deque_baseIN10duckdb_re29WalkStateIiEESaIS2_EE17_M_initialize_mapEm(ptr noundef nonnull align 8 dereferenceable(80) %3, i64 noundef 0)
  %4 = getelementptr inbounds nuw i8, ptr %2, i64 88
  store i8 0, ptr %4, align 8, !tbaa !84
  store ptr getelementptr inbounds nuw inrange(-16, 48) (i8, ptr @_ZTVN10duckdb_re217NumCapturesWalkerE, i64 16), ptr %2, align 8, !tbaa !28
  %5 = getelementptr inbounds nuw i8, ptr %2, i64 96
  store i32 0, ptr %5, align 8, !tbaa !94
  %6 = getelementptr inbounds nuw i8, ptr %2, i64 92
  store i32 1000000, ptr %6, align 4, !tbaa !96
  %7 = invoke noundef i32 @_ZN10duckdb_re26Regexp6WalkerIiE12WalkInternalEPS0_ib(ptr noundef nonnull align 8 dereferenceable(96) %2, ptr noundef nonnull %0, i32 noundef 0, i1 noundef zeroext true)
          to label %_ZN10duckdb_re26Regexp6WalkerIiE4WalkEPS0_i.exit unwind label %25

_ZN10duckdb_re26Regexp6WalkerIiE4WalkEPS0_i.exit: ; preds = %1
  %8 = load i32, ptr %5, align 8, !tbaa !94
  store ptr getelementptr inbounds nuw inrange(-16, 48) (i8, ptr @_ZTVN10duckdb_re26Regexp6WalkerIiEE, i64 16), ptr %2, align 8, !tbaa !28
  invoke void @_ZN10duckdb_re26Regexp6WalkerIiE5ResetEv(ptr noundef nonnull align 8 dereferenceable(100) %2)
          to label %9 unwind label %22

9:                                                ; preds = %_ZN10duckdb_re26Regexp6WalkerIiE4WalkEPS0_i.exit
  %10 = load ptr, ptr %3, align 8, !tbaa !97
  %.not.i.i.i.i = icmp eq ptr %10, null
  br i1 %.not.i.i.i.i, label %_ZN10duckdb_re26Regexp6WalkerIiED2Ev.exit, label %11

11:                                               ; preds = %9
  %12 = getelementptr inbounds nuw i8, ptr %2, i64 80
  %13 = getelementptr inbounds nuw i8, ptr %2, i64 48
  %14 = load ptr, ptr %13, align 8, !tbaa !98
  %15 = load ptr, ptr %12, align 8, !tbaa !99
  %16 = getelementptr inbounds nuw i8, ptr %15, i64 8
  %17 = icmp ult ptr %14, %16
  br i1 %17, label %.lr.ph.i.i.i.i.i, label %_ZNSt11_Deque_baseIN10duckdb_re29WalkStateIiEESaIS2_EE16_M_destroy_nodesEPPS2_S6_.exit.i.i.i.i

.lr.ph.i.i.i.i.i:                                 ; preds = %11, %.lr.ph.i.i.i.i.i
  %.06.i.i.i.i.i = phi ptr [ %19, %.lr.ph.i.i.i.i.i ], [ %14, %11 ]
  %18 = load ptr, ptr %.06.i.i.i.i.i, align 8, !tbaa !100
  call void @_ZdlPv(ptr noundef %18) #28
  %19 = getelementptr inbounds nuw i8, ptr %.06.i.i.i.i.i, i64 8
  %20 = icmp ult ptr %.06.i.i.i.i.i, %15
  br i1 %20, label %.lr.ph.i.i.i.i.i, label %_ZNSt11_Deque_baseIN10duckdb_re29WalkStateIiEESaIS2_EE16_M_destroy_nodesEPPS2_S6_.exit.loopexit.i.i.i.i, !llvm.loop !101

_ZNSt11_Deque_baseIN10duckdb_re29WalkStateIiEESaIS2_EE16_M_destroy_nodesEPPS2_S6_.exit.loopexit.i.i.i.i: ; preds = %.lr.ph.i.i.i.i.i
  %.pre.i.i.i.i = load ptr, ptr %3, align 8, !tbaa !97
  br label %_ZNSt11_Deque_baseIN10duckdb_re29WalkStateIiEESaIS2_EE16_M_destroy_nodesEPPS2_S6_.exit.i.i.i.i

_ZNSt11_Deque_baseIN10duckdb_re29WalkStateIiEESaIS2_EE16_M_destroy_nodesEPPS2_S6_.exit.i.i.i.i: ; preds = %_ZNSt11_Deque_baseIN10duckdb_re29WalkStateIiEESaIS2_EE16_M_destroy_nodesEPPS2_S6_.exit.loopexit.i.i.i.i, %11
  %21 = phi ptr [ %.pre.i.i.i.i, %_ZNSt11_Deque_baseIN10duckdb_re29WalkStateIiEESaIS2_EE16_M_destroy_nodesEPPS2_S6_.exit.loopexit.i.i.i.i ], [ %10, %11 ]
  call void @_ZdlPv(ptr noundef %21) #28
  br label %_ZN10duckdb_re26Regexp6WalkerIiED2Ev.exit

22:                                               ; preds = %_ZN10duckdb_re26Regexp6WalkerIiE4WalkEPS0_i.exit
  %23 = landingpad { ptr, i32 }
          catch ptr null
  %24 = extractvalue { ptr, i32 } %23, 0
  call void @__clang_call_terminate(ptr %24) #29
  unreachable

_ZN10duckdb_re26Regexp6WalkerIiED2Ev.exit:        ; preds = %9, %_ZNSt11_Deque_baseIN10duckdb_re29WalkStateIiEESaIS2_EE16_M_destroy_nodesEPPS2_S6_.exit.i.i.i.i
  call void @llvm.lifetime.end.p0(i64 104, ptr nonnull %2) #27
  ret i32 %8

25:                                               ; preds = %1
  %26 = landingpad { ptr, i32 }
          cleanup
  call void @_ZN10duckdb_re26Regexp6WalkerIiED2Ev(ptr noundef nonnull align 8 dereferenceable(100) %2) #27
  call void @llvm.lifetime.end.p0(i64 104, ptr nonnull %2) #27
  resume { ptr, i32 } %26
}